target datalayout = "e-m:e-p270:32:32-p271:32:32-p272:64:64-i64:64-i128:128-f80:128-n8:16:32:64-S128"
target triple = "x86_64-pc-linux-gnu"

%struct._object = type { %union.anon, ptr }
%union.anon = type { i64 }

@.str.65 = private unnamed_addr constant [40 x i8] c"../cpython/Modules/_testcapi/pyatomic.c\00", align 1
@_Py_NoneStruct = external global %struct._object, align 8
@.str.281 = private unnamed_addr constant [43 x i8] c"_Py_atomic_exchange_ptr(&x, y) == (void*)0\00", align 1
@__PRETTY_FUNCTION__.test_atomic_exchange_ptr = private unnamed_addr constant [59 x i8] c"PyObject *test_atomic_exchange_ptr(PyObject *, PyObject *)\00", align 1
@.str.282 = private unnamed_addr constant [14 x i8] c"x == (void*)1\00", align 1
@.str.283 = private unnamed_addr constant [43 x i8] c"_Py_atomic_exchange_ptr(&x, z) == (void*)1\00", align 1
@.str.284 = private unnamed_addr constant [14 x i8] c"x == (void*)2\00", align 1
@.str.285 = private unnamed_addr constant [43 x i8] c"_Py_atomic_exchange_ptr(&x, y) == (void*)2\00", align 1

; Function Attrs: inlinehint nounwind uwtable
define internal ptr @_Py_atomic_exchange_ptr(ptr noundef %0, ptr noundef %1) #3 {
  %3 = alloca ptr, align 8
  %4 = alloca ptr, align 8
  %5 = alloca ptr, align 8
  %6 = alloca ptr, align 8
  store ptr %0, ptr %3, align 8, !tbaa !15
  store ptr %1, ptr %4, align 8, !tbaa !15
  %7 = load ptr, ptr %3, align 8, !tbaa !15
  %8 = load ptr, ptr %4, align 8, !tbaa !15
  store ptr %8, ptr %5, align 8, !tbaa !15
  %9 = load i64, ptr %5, align 8
  %10 = atomicrmw xchg ptr %7, i64 %9 seq_cst, align 8
  store i64 %10, ptr %6, align 8
  %11 = load ptr, ptr %6, align 8, !tbaa !15
  ret ptr %11
}

; Function Attrs: nounwind uwtable
define internal ptr @test_atomic_exchange_ptr(ptr noundef %0, ptr noundef %1) #0 {
  %3 = alloca ptr, align 8
  %4 = alloca ptr, align 8
  %5 = alloca ptr, align 8
  %6 = alloca ptr, align 8
  %7 = alloca ptr, align 8
  store ptr %0, ptr %3, align 8, !tbaa !3
  store ptr %1, ptr %4, align 8, !tbaa !3
  call void @llvm.lifetime.start.p0(i64 8, ptr %5) #5
  store ptr null, ptr %5, align 8, !tbaa !15
  call void @llvm.lifetime.start.p0(i64 8, ptr %6) #5
  store ptr inttoptr (i64 1 to ptr), ptr %6, align 8, !tbaa !15
  call void @llvm.lifetime.start.p0(i64 8, ptr %7) #5
  store ptr inttoptr (i64 2 to ptr), ptr %7, align 8, !tbaa !15
  %8 = load ptr, ptr %6, align 8, !tbaa !15
  %9 = call ptr @_Py_atomic_exchange_ptr(ptr noundef %5, ptr noundef %8)
  %10 = icmp eq ptr %9, null
  br i1 %10, label %11, label %12

11:                                               ; preds = %2
  br label %14

12:                                               ; preds = %2
  call void @__assert_fail(ptr noundef @.str.281, ptr noundef @.str.65, i32 noundef 89, ptr noundef @__PRETTY_FUNCTION__.test_atomic_exchange_ptr) #6
  unreachable

13:                                               ; No predecessors!
  br label %14

14:                                               ; preds = %13, %11
  %15 = load ptr, ptr %5, align 8, !tbaa !15
  %16 = icmp eq ptr %15, inttoptr (i64 1 to ptr)
  br i1 %16, label %17, label %18

17:                                               ; preds = %14
  br label %20

18:                                               ; preds = %14
  call void @__assert_fail(ptr noundef @.str.282, ptr noundef @.str.65, i32 noundef 89, ptr noundef @__PRETTY_FUNCTION__.test_atomic_exchange_ptr) #6
  unreachable

19:                                               ; No predecessors!
  br label %20

20:                                               ; preds = %19, %17
  %21 = load ptr, ptr %7, align 8, !tbaa !15
  %22 = call ptr @_Py_atomic_exchange_ptr(ptr noundef %5, ptr noundef %21)
  %23 = icmp eq ptr %22, inttoptr (i64 1 to ptr)
  br i1 %23, label %24, label %25

24:                                               ; preds = %20
  br label %27

25:                                               ; preds = %20
  call void @__assert_fail(ptr noundef @.str.283, ptr noundef @.str.65, i32 noundef 89, ptr noundef @__PRETTY_FUNCTION__.test_atomic_exchange_ptr) #6
  unreachable

26:                                               ; No predecessors!
  br label %27

27:                                               ; preds = %26, %24
  %28 = load ptr, ptr %5, align 8, !tbaa !15
  %29 = icmp eq ptr %28, inttoptr (i64 2 to ptr)
  br i1 %29, label %30, label %31

30:                                               ; preds = %27
  br label %33

31:                                               ; preds = %27
  call void @__assert_fail(ptr noundef @.str.284, ptr noundef @.str.65, i32 noundef 89, ptr noundef @__PRETTY_FUNCTION__.test_atomic_exchange_ptr) #6
  unreachable

32:                                               ; No predecessors!
  br label %33

33:                                               ; preds = %32, %30
  %34 = load ptr, ptr %6, align 8, !tbaa !15
  %35 = call ptr @_Py_atomic_exchange_ptr(ptr noundef %5, ptr noundef %34)
  %36 = icmp eq ptr %35, inttoptr (i64 2 to ptr)
  br i1 %36, label %37, label %38

37:                                               ; preds = %33
  br label %40

38:                                               ; preds = %33
  call void @__assert_fail(ptr noundef @.str.285, ptr noundef @.str.65, i32 noundef 89, ptr noundef @__PRETTY_FUNCTION__.test_atomic_exchange_ptr) #6
  unreachable

39:                                               ; No predecessors!
  br label %40

40:                                               ; preds = %39, %37
  %41 = load ptr, ptr %5, align 8, !tbaa !15
  %42 = icmp eq ptr %41, inttoptr (i64 1 to ptr)
  br i1 %42, label %43, label %44

43:                                               ; preds = %40
  br label %46

44:                                               ; preds = %40
  call void @__assert_fail(ptr noundef @.str.282, ptr noundef @.str.65, i32 noundef 89, ptr noundef @__PRETTY_FUNCTION__.test_atomic_exchange_ptr) #6
  unreachable

45:                                               ; No predecessors!
  br label %46

46:                                               ; preds = %45, %43
  call void @llvm.lifetime.end.p0(i64 8, ptr %7) #5
  call void @llvm.lifetime.end.p0(i64 8, ptr %6) #5
  call void @llvm.lifetime.end.p0(i64 8, ptr %5) #5
  ret ptr @_Py_NoneStruct
}